; Function Attrs: mustprogress uwtable
define hidden void @_ZNK2cv7details10Chessboard9buildDataERKSt6vectorINS_8KeyPointESaIS3_EE(ptr dead_on_unwind noalias nonnull writable sret(%"class.cv::Mat") align 8 %0, ptr noundef nonnull readnone align 8 captures(none) dereferenceable(36) %1, ptr noundef nonnull readonly align 8 captures(none) dereferenceable(24) %2) local_unnamed_addr #5 align 2 {
  %4 = getelementptr inbounds nuw i8, ptr %2, i64 8
  %5 = load ptr, ptr %4, align 8, !tbaa !73
  %6 = load ptr, ptr %2, align 8, !tbaa !76
  %7 = ptrtoint ptr %5 to i64
  %8 = ptrtoint ptr %6 to i64
  %9 = sub i64 %7, %8
  %10 = sdiv exact i64 %9, 28
  %11 = trunc i64 %10 to i32
  tail call void @_ZN2cv3MatC1Eiii(ptr noundef nonnull align 8 dereferenceable(96) %0, i32 noundef %11, i32 noundef 4, i32 noundef 5)
  %12 = load ptr, ptr %2, align 8, !tbaa !141
  %13 = load ptr, ptr %4, align 8, !tbaa !141
  %.not14 = icmp eq ptr %12, %13
  br i1 %.not14, label %._crit_edge, label %.lr.ph.preheader

.lr.ph.preheader:                                 ; preds = %3
  %14 = getelementptr inbounds nuw i8, ptr %0, i64 16
  %15 = load ptr, ptr %14, align 8, !tbaa !46
  br label %.lr.ph

.lr.ph:                                           ; preds = %.lr.ph.preheader, %.lr.ph
  %.016 = phi ptr [ %30, %.lr.ph ], [ %15, %.lr.ph.preheader ]
  %.sroa.08.015 = phi ptr [ %31, %.lr.ph ], [ %12, %.lr.ph.preheader ]
  %16 = load float, ptr %.sroa.08.015, align 4, !tbaa !142
  %17 = getelementptr inbounds nuw i8, ptr %.016, i64 4
  store float %16, ptr %.016, align 4, !tbaa !19
  %18 = getelementptr inbounds nuw i8, ptr %.sroa.08.015, i64 4
  %19 = load float, ptr %18, align 4, !tbaa !145
  %20 = getelementptr inbounds nuw i8, ptr %.016, i64 8
  store float %19, ptr %17, align 4, !tbaa !19
  %21 = getelementptr inbounds nuw i8, ptr %.sroa.08.015, i64 12
  %22 = load float, ptr %21, align 4, !tbaa !743
  %23 = fpext float %22 to double
  %24 = fdiv double %23, -1.800000e+02
  %25 = tail call double @llvm.fmuladd.f64(double %24, double 0x400921FB54442D18, double 0x401921FB54442D18)
  %26 = fptrunc double %25 to float
  %27 = getelementptr inbounds nuw i8, ptr %.016, i64 12
  store float %26, ptr %20, align 4, !tbaa !19
  %28 = getelementptr inbounds nuw i8, ptr %.sroa.08.015, i64 16
  %29 = load float, ptr %28, align 4, !tbaa !729
  %30 = getelementptr inbounds nuw i8, ptr %.016, i64 16
  store float %29, ptr %27, align 4, !tbaa !19
  %31 = getelementptr inbounds nuw i8, ptr %.sroa.08.015, i64 28
  %.not = icmp eq ptr %31, %13
  br i1 %.not, label %._crit_edge, label %.lr.ph, !llvm.loop !744

._crit_edge:                                      ; preds = %.lr.ph, %3
  ret void
}